; Function Attrs: mustprogress uwtable
define hidden void @_ZNK4cvc58internal7printer4smt211Smt2Printer24toStreamCmdInvConstraintERSoNS0_12NodeTemplateILb1EEES6_S6_S6_(ptr nonnull readnone align 8 captures(none) %0, ptr noundef nonnull align 8 dereferenceable(8) %1, ptr noundef readonly captures(none) %2, ptr noundef readonly captures(none) %3, ptr noundef readonly captures(none) %4, ptr noundef readonly captures(none) %5) unnamed_addr #3 align 2 personality ptr @__gxx_personality_v0 {
_ZN4cvc58internallsERSoNS0_12NodeTemplateILb0EEE.exit:
  %6 = alloca i8, align 1
  %7 = alloca i8, align 1
  %8 = alloca i8, align 1
  %9 = alloca i8, align 1
  %10 = tail call noundef nonnull align 8 dereferenceable(8) ptr @_ZSt16__ostream_insertIcSt11char_traitsIcEERSt13basic_ostreamIT_T0_ES6_PKS3_l(ptr noundef nonnull align 8 dereferenceable(8) %1, ptr noundef nonnull @.str.440, i64 noundef 16)
  %11 = load ptr, ptr %2, align 8, !tbaa !17
  tail call void @_ZNK4cvc58internal4expr9NodeValue8toStreamERSo(ptr noundef nonnull align 8 dereferenceable(24) %11, ptr noundef nonnull align 8 dereferenceable(8) %1)
  call void @llvm.lifetime.start.p0(i64 1, ptr nonnull %9)
  store i8 32, ptr %9, align 1, !tbaa !15
  %12 = load ptr, ptr %1, align 8, !tbaa !40
  %13 = getelementptr i8, ptr %12, i64 -24
  %14 = load i64, ptr %13, align 8
  %15 = getelementptr inbounds i8, ptr %1, i64 %14
  %16 = getelementptr inbounds nuw i8, ptr %15, i64 16
  %17 = load i64, ptr %16, align 8, !tbaa !55
  %.not.i = icmp eq i64 %17, 0
  br i1 %.not.i, label %20, label %18

18:                                               ; preds = %_ZN4cvc58internallsERSoNS0_12NodeTemplateILb0EEE.exit
  %19 = call noundef nonnull align 8 dereferenceable(8) ptr @_ZSt16__ostream_insertIcSt11char_traitsIcEERSt13basic_ostreamIT_T0_ES6_PKS3_l(ptr noundef nonnull align 8 dereferenceable(8) %1, ptr noundef nonnull %9, i64 noundef 1)
  br label %_ZN4cvc58internallsERSoNS0_12NodeTemplateILb0EEE.exit10

20:                                               ; preds = %_ZN4cvc58internallsERSoNS0_12NodeTemplateILb0EEE.exit
  %21 = tail call noundef nonnull align 8 dereferenceable(8) ptr @_ZNSo3putEc(ptr noundef nonnull align 8 dereferenceable(8) %1, i8 noundef signext 32)
  br label %_ZN4cvc58internallsERSoNS0_12NodeTemplateILb0EEE.exit10

_ZN4cvc58internallsERSoNS0_12NodeTemplateILb0EEE.exit10: ; preds = %18, %20
  %.0.i = phi ptr [ %19, %18 ], [ %1, %20 ]
  call void @llvm.lifetime.end.p0(i64 1, ptr nonnull %9)
  %22 = load ptr, ptr %3, align 8, !tbaa !17
  call void @_ZNK4cvc58internal4expr9NodeValue8toStreamERSo(ptr noundef nonnull align 8 dereferenceable(24) %22, ptr noundef nonnull align 8 dereferenceable(8) %.0.i)
  call void @llvm.lifetime.start.p0(i64 1, ptr nonnull %8)
  store i8 32, ptr %8, align 1, !tbaa !15
  %23 = load ptr, ptr %.0.i, align 8, !tbaa !40
  %24 = getelementptr i8, ptr %23, i64 -24
  %25 = load i64, ptr %24, align 8
  %26 = getelementptr inbounds i8, ptr %.0.i, i64 %25
  %27 = getelementptr inbounds nuw i8, ptr %26, i64 16
  %28 = load i64, ptr %27, align 8, !tbaa !55
  %.not.i11 = icmp eq i64 %28, 0
  br i1 %.not.i11, label %31, label %29

29:                                               ; preds = %_ZN4cvc58internallsERSoNS0_12NodeTemplateILb0EEE.exit10
  %30 = call noundef nonnull align 8 dereferenceable(8) ptr @_ZSt16__ostream_insertIcSt11char_traitsIcEERSt13basic_ostreamIT_T0_ES6_PKS3_l(ptr noundef nonnull align 8 dereferenceable(8) %.0.i, ptr noundef nonnull %8, i64 noundef 1)
  br label %_ZN4cvc58internallsERSoNS0_12NodeTemplateILb0EEE.exit17

31:                                               ; preds = %_ZN4cvc58internallsERSoNS0_12NodeTemplateILb0EEE.exit10
  %32 = call noundef nonnull align 8 dereferenceable(8) ptr @_ZNSo3putEc(ptr noundef nonnull align 8 dereferenceable(8) %.0.i, i8 noundef signext 32)
  br label %_ZN4cvc58internallsERSoNS0_12NodeTemplateILb0EEE.exit17

_ZN4cvc58internallsERSoNS0_12NodeTemplateILb0EEE.exit17: ; preds = %29, %31
  %.0.i12 = phi ptr [ %30, %29 ], [ %.0.i, %31 ]
  call void @llvm.lifetime.end.p0(i64 1, ptr nonnull %8)
  %33 = load ptr, ptr %4, align 8, !tbaa !17
  call void @_ZNK4cvc58internal4expr9NodeValue8toStreamERSo(ptr noundef nonnull align 8 dereferenceable(24) %33, ptr noundef nonnull align 8 dereferenceable(8) %.0.i12)
  call void @llvm.lifetime.start.p0(i64 1, ptr nonnull %7)
  store i8 32, ptr %7, align 1, !tbaa !15
  %34 = load ptr, ptr %.0.i12, align 8, !tbaa !40
  %35 = getelementptr i8, ptr %34, i64 -24
  %36 = load i64, ptr %35, align 8
  %37 = getelementptr inbounds i8, ptr %.0.i12, i64 %36
  %38 = getelementptr inbounds nuw i8, ptr %37, i64 16
  %39 = load i64, ptr %38, align 8, !tbaa !55
  %.not.i18 = icmp eq i64 %39, 0
  br i1 %.not.i18, label %42, label %40

40:                                               ; preds = %_ZN4cvc58internallsERSoNS0_12NodeTemplateILb0EEE.exit17
  %41 = call noundef nonnull align 8 dereferenceable(8) ptr @_ZSt16__ostream_insertIcSt11char_traitsIcEERSt13basic_ostreamIT_T0_ES6_PKS3_l(ptr noundef nonnull align 8 dereferenceable(8) %.0.i12, ptr noundef nonnull %7, i64 noundef 1)
  br label %_ZN4cvc58internallsERSoNS0_12NodeTemplateILb0EEE.exit24

42:                                               ; preds = %_ZN4cvc58internallsERSoNS0_12NodeTemplateILb0EEE.exit17
  %43 = call noundef nonnull align 8 dereferenceable(8) ptr @_ZNSo3putEc(ptr noundef nonnull align 8 dereferenceable(8) %.0.i12, i8 noundef signext 32)
  br label %_ZN4cvc58internallsERSoNS0_12NodeTemplateILb0EEE.exit24

_ZN4cvc58internallsERSoNS0_12NodeTemplateILb0EEE.exit24: ; preds = %40, %42
  %.0.i19 = phi ptr [ %41, %40 ], [ %.0.i12, %42 ]
  call void @llvm.lifetime.end.p0(i64 1, ptr nonnull %7)
  %44 = load ptr, ptr %5, align 8, !tbaa !17
  call void @_ZNK4cvc58internal4expr9NodeValue8toStreamERSo(ptr noundef nonnull align 8 dereferenceable(24) %44, ptr noundef nonnull align 8 dereferenceable(8) %.0.i19)
  call void @llvm.lifetime.start.p0(i64 1, ptr nonnull %6)
  store i8 41, ptr %6, align 1, !tbaa !15
  %45 = load ptr, ptr %.0.i19, align 8, !tbaa !40
  %46 = getelementptr i8, ptr %45, i64 -24
  %47 = load i64, ptr %46, align 8
  %48 = getelementptr inbounds i8, ptr %.0.i19, i64 %47
  %49 = getelementptr inbounds nuw i8, ptr %48, i64 16
  %50 = load i64, ptr %49, align 8, !tbaa !55
  %.not.i25 = icmp eq i64 %50, 0
  br i1 %.not.i25, label %53, label %51

51:                                               ; preds = %_ZN4cvc58internallsERSoNS0_12NodeTemplateILb0EEE.exit24
  %52 = call noundef nonnull align 8 dereferenceable(8) ptr @_ZSt16__ostream_insertIcSt11char_traitsIcEERSt13basic_ostreamIT_T0_ES6_PKS3_l(ptr noundef nonnull align 8 dereferenceable(8) %.0.i19, ptr noundef nonnull %6, i64 noundef 1)
  br label %55

53:                                               ; preds = %_ZN4cvc58internallsERSoNS0_12NodeTemplateILb0EEE.exit24
  %54 = call noundef nonnull align 8 dereferenceable(8) ptr @_ZNSo3putEc(ptr noundef nonnull align 8 dereferenceable(8) %.0.i19, i8 noundef signext 41)
  br label %55

55:                                               ; preds = %51, %53
  call void @llvm.lifetime.end.p0(i64 1, ptr nonnull %6)
  ret void
}